; Function Attrs: nounwind uwtable
define hidden void @_ZThn16_N4cvc58internal11LazyCDProofD0Ev(ptr noundef %this) unnamed_addr #5 align 2 {
entry:
  %0 = getelementptr inbounds i8, ptr %this, i64 -16
  store ptr getelementptr inbounds ({ [6 x ptr], [8 x ptr] }, ptr @_ZTVN4cvc58internal11LazyCDProofE, i64 0, i32 0, i64 2), ptr %0, align 8
  store ptr getelementptr inbounds ({ [6 x ptr], [8 x ptr] }, ptr @_ZTVN4cvc58internal11LazyCDProofE, i64 0, i32 1, i64 2), ptr %this, align 8
  %d_allVisited.i.i = getelementptr inbounds i8, ptr %this, i64 336
  tail call void @_ZN4cvc57context15CDInsertHashMapIPNS_8internal9ProofNodeEbSt4hashIS4_EED2Ev(ptr noundef nonnull align 8 dereferenceable(56) %d_allVisited.i.i) #20
  %d_gens.i.i = getelementptr inbounds i8, ptr %this, i64 208
  tail call void @_ZN4cvc57context9CDHashMapINS_8internal12NodeTemplateILb1EEEPNS2_14ProofGeneratorESt4hashIS4_EED2Ev(ptr noundef nonnull align 8 dereferenceable(112) %d_gens.i.i) #20
  tail call void @_ZN4cvc58internal7CDProofD2Ev(ptr noundef nonnull align 8 dereferenceable(217) %0) #20
  tail call void @_ZdlPv(ptr noundef nonnull %0) #19
  ret void
}